target datalayout = "e-m:e-p270:32:32-p271:32:32-p272:64:64-i64:64-i128:128-f80:128-n8:16:32:64-S128"
target triple = "x86_64-pc-linux-gnu"

%struct.bio_method_st = type { i32, ptr, ptr, ptr, ptr, ptr, ptr, ptr, ptr, ptr, ptr, ptr, ptr, ptr }

@.str = private unnamed_addr constant [33 x i8] c"../openssl/crypto/bio/bio_meth.c\00", align 1

; Function Attrs: nounwind uwtable
define ptr @BIO_meth_new(i32 noundef %0, ptr noundef %1) #0 {
  %3 = alloca ptr, align 8
  %4 = alloca i32, align 4
  %5 = alloca ptr, align 8
  %6 = alloca ptr, align 8
  %7 = alloca i32, align 4
  store i32 %0, ptr %4, align 4, !tbaa !3
  store ptr %1, ptr %5, align 8, !tbaa !11
  call void @llvm.lifetime.start.p0(i64 8, ptr %6) #4
  %8 = call noalias ptr @CRYPTO_zalloc(i64 noundef 112, ptr noundef @.str, i32 noundef 39)
  store ptr %8, ptr %6, align 8, !tbaa !13
  %9 = load ptr, ptr %6, align 8, !tbaa !13
  %10 = icmp eq ptr %9, null
  br i1 %10, label %17, label %11

11:                                               ; preds = %2
  %12 = load ptr, ptr %5, align 8, !tbaa !11
  %13 = call noalias ptr @CRYPTO_strdup(ptr noundef %12, ptr noundef @.str, i32 noundef 42)
  %14 = load ptr, ptr %6, align 8, !tbaa !13
  %15 = getelementptr inbounds nuw %struct.bio_method_st, ptr %14, i32 0, i32 1
  store ptr %13, ptr %15, align 8, !tbaa !15
  %16 = icmp eq ptr %13, null
  br i1 %16, label %17, label %19

17:                                               ; preds = %11, %2
  %18 = load ptr, ptr %6, align 8, !tbaa !13
  call void @CRYPTO_free(ptr noundef %18, ptr noundef @.str, i32 noundef 43)
  store ptr null, ptr %3, align 8
  store i32 1, ptr %7, align 4
  br label %24

19:                                               ; preds = %11
  %20 = load i32, ptr %4, align 4, !tbaa !3
  %21 = load ptr, ptr %6, align 8, !tbaa !13
  %22 = getelementptr inbounds nuw %struct.bio_method_st, ptr %21, i32 0, i32 0
  store i32 %20, ptr %22, align 8, !tbaa !17
  %23 = load ptr, ptr %6, align 8, !tbaa !13
  store ptr %23, ptr %3, align 8
  store i32 1, ptr %7, align 4
  br label %24

24:                                               ; preds = %19, %17
  call void @llvm.lifetime.end.p0(i64 8, ptr %6) #4
  %25 = load ptr, ptr %3, align 8
  ret ptr %25
}