; Function Attrs: nounwind uwtable
define ptr @BIO_meth_new(i32 noundef %0, ptr noundef %1) local_unnamed_addr #0 {
  %3 = tail call noalias ptr @CRYPTO_zalloc(i64 noundef 112, ptr noundef nonnull @.str, i32 noundef 39) #6
  %4 = icmp eq ptr %3, null
  br i1 %4, label %9, label %5

5:                                                ; preds = %2
  %6 = tail call noalias ptr @CRYPTO_strdup(ptr noundef %1, ptr noundef nonnull @.str, i32 noundef 42) #6
  %7 = getelementptr inbounds nuw i8, ptr %3, i64 8
  store ptr %6, ptr %7, align 8, !tbaa !7
  %8 = icmp eq ptr %6, null
  br i1 %8, label %9, label %10

9:                                                ; preds = %5, %2
  tail call void @CRYPTO_free(ptr noundef %3, ptr noundef nonnull @.str, i32 noundef 43) #6
  br label %11

10:                                               ; preds = %5
  store i32 %0, ptr %3, align 8, !tbaa !12
  br label %11

11:                                               ; preds = %10, %9
  %.0 = phi ptr [ null, %9 ], [ %3, %10 ]
  ret ptr %.0
}